; Function Attrs: nounwind uwtable
define internal noundef ptr @H5O__btreek_copy(ptr noundef readonly captures(none) %0, ptr noundef writeonly captures(address_is_null, ret: address, provenance) %1) #0 {
  %3 = load i8, ptr @H5O_init_g, align 1, !tbaa !3, !range !7, !noundef !8
  %4 = trunc nuw i8 %3 to i1
  %5 = load i8, ptr @H5_libterm_g, align 1, !range !7
  %6 = trunc nuw i8 %5 to i1
  %7 = xor i1 %6, true
  %8 = select i1 %4, i1 true, i1 %7
  br i1 %8, label %9, label %18, !prof !9

9:                                                ; preds = %2
  %.not = icmp eq ptr %1, null
  br i1 %.not, label %10, label %17

10:                                               ; preds = %9
  %11 = tail call noalias dereferenceable_or_null(12) ptr @malloc(i64 noundef 12) #12
  %12 = icmp eq ptr %11, null
  br i1 %12, label %13, label %17

13:                                               ; preds = %10
  %14 = load i64, ptr @H5E_RESOURCE_g, align 8, !tbaa !10
  %15 = load i64, ptr @H5E_NOSPACE_g, align 8, !tbaa !10
  %16 = tail call i32 (ptr, ptr, i32, i64, i64, ptr, ...) @H5E_printf_stack(ptr noundef nonnull @.str.1, ptr noundef nonnull @__func__.H5O__btreek_copy, i32 noundef 170, i64 noundef %14, i64 noundef %15, ptr noundef nonnull @.str.5) #10
  br label %18

17:                                               ; preds = %10, %9
  %.07 = phi ptr [ %1, %9 ], [ %11, %10 ]
  tail call void @llvm.memcpy.p0.p0.i64(ptr noundef nonnull align 4 dereferenceable(12) %.07, ptr noundef nonnull align 4 dereferenceable(12) %0, i64 12, i1 false), !tbaa.struct !17
  br label %18

18:                                               ; preds = %13, %17, %2
  %.0 = phi ptr [ %.07, %17 ], [ null, %13 ], [ null, %2 ]
  ret ptr %.0
}